; Function Attrs: mustprogress nofree nounwind uwtable
define dso_local noundef zeroext i1 @_ZN5cmsys11SystemTools10PathExistsERKNSt7__cxx1112basic_stringIcSt11char_traitsIcESaIcEEE(ptr noundef nonnull readonly align 8 captures(none) dereferenceable(32) %0) local_unnamed_addr #3 align 2 {
  %2 = alloca %struct.stat, align 8
  %3 = getelementptr inbounds nuw i8, ptr %0, i64 8
  %4 = load i64, ptr %3, align 8, !tbaa !18
  %5 = icmp eq i64 %4, 0
  br i1 %5, label %10, label %6

6:                                                ; preds = %1
  call void @llvm.lifetime.start.p0(i64 144, ptr nonnull %2) #39
  %7 = load ptr, ptr %0, align 8, !tbaa !21
  %8 = call i32 @lstat(ptr noundef %7, ptr noundef nonnull %2) #39
  %9 = icmp eq i32 %8, 0
  call void @llvm.lifetime.end.p0(i64 144, ptr nonnull %2) #39
  br label %10

10:                                               ; preds = %1, %6
  %.0 = phi i1 [ %9, %6 ], [ false, %1 ]
  ret i1 %.0
}